#include <math.h>
#include <stdio.h>
#include <stdlib.h>
#include <string.h>

int main()
{
    int n,i,an[10];
    scanf("%d",&n);
    int j=0;
    for(i=n;i>0;i=i/10)
    {
      an[j]=i%10;
      j++;
    }
    for(i=0;i<j;i++)
    {
     printf("%d",an[i]);
    }
    return 0;
}
